target datalayout = "e-m:e-p270:32:32-p271:32:32-p272:64:64-i64:64-i128:128-f80:128-n8:16:32:64-S128"
target triple = "x86_64-unknown-linux-gnu"

%"class.proxygen::HeaderCodec" = type { ptr, %"struct.proxygen::HTTPHeaderSize", i32, i64, ptr }
%"struct.proxygen::HTTPHeaderSize" = type { i32, i32, i32 }

; Function Attrs: mustprogress uwtable
define void @_ZN8proxygen10HPACKCodec20recordCompressedSizeEPKN5folly5IOBufE(ptr noundef nonnull align 8 dereferenceable(408) %this, ptr noundef %stream) #4 align 2 {
entry:
  %this.addr = alloca ptr, align 8
  %stream.addr = alloca ptr, align 8
  %streamDataLength = alloca i64, align 8
  store ptr %this, ptr %this.addr, align 8
  store ptr %stream, ptr %stream.addr, align 8
  %this1 = load ptr, ptr %this.addr, align 8
  %encodedSize_ = getelementptr inbounds %"class.proxygen::HeaderCodec", ptr %this1, i32 0, i32 1
  %compressed = getelementptr inbounds %"struct.proxygen::HTTPHeaderSize", ptr %encodedSize_, i32 0, i32 0
  store i32 0, ptr %compressed, align 8
  %0 = load ptr, ptr %stream.addr, align 8
  %tobool = icmp ne ptr %0, null
  br i1 %tobool, label %if.then, label %if.end

if.then:                                          ; preds = %entry
  %1 = load ptr, ptr %stream.addr, align 8
  %call = call noundef i64 @_ZNK5folly5IOBuf22computeChainDataLengthEv(ptr noundef nonnull align 8 dereferenceable(56) %1)
  store i64 %call, ptr %streamDataLength, align 8
  %2 = load i64, ptr %streamDataLength, align 8
  %encodedSize_2 = getelementptr inbounds %"class.proxygen::HeaderCodec", ptr %this1, i32 0, i32 1
  %compressed3 = getelementptr inbounds %"struct.proxygen::HTTPHeaderSize", ptr %encodedSize_2, i32 0, i32 0
  %3 = load i32, ptr %compressed3, align 8
  %conv = zext i32 %3 to i64
  %add = add i64 %conv, %2
  %conv4 = trunc i64 %add to i32
  store i32 %conv4, ptr %compressed3, align 8
  %4 = load i64, ptr %streamDataLength, align 8
  %encodedSize_5 = getelementptr inbounds %"class.proxygen::HeaderCodec", ptr %this1, i32 0, i32 1
  %compressedBlock = getelementptr inbounds %"struct.proxygen::HTTPHeaderSize", ptr %encodedSize_5, i32 0, i32 2
  %5 = load i32, ptr %compressedBlock, align 8
  %conv6 = zext i32 %5 to i64
  %add7 = add i64 %conv6, %4
  %conv8 = trunc i64 %add7 to i32
  store i32 %conv8, ptr %compressedBlock, align 8
  br label %if.end

if.end:                                           ; preds = %if.then, %entry
  %stats_ = getelementptr inbounds %"class.proxygen::HeaderCodec", ptr %this1, i32 0, i32 4
  %6 = load ptr, ptr %stats_, align 8
  %tobool9 = icmp ne ptr %6, null
  br i1 %tobool9, label %if.then10, label %if.end13

if.then10:                                        ; preds = %if.end
  %stats_11 = getelementptr inbounds %"class.proxygen::HeaderCodec", ptr %this1, i32 0, i32 4
  %7 = load ptr, ptr %stats_11, align 8
  %encodedSize_12 = getelementptr inbounds %"class.proxygen::HeaderCodec", ptr %this1, i32 0, i32 1
  %vtable = load ptr, ptr %7, align 8
  %vfn = getelementptr inbounds ptr, ptr %vtable, i64 2
  %8 = load ptr, ptr %vfn, align 8
  call void %8(ptr noundef nonnull align 8 dereferenceable(8) %7, i8 noundef zeroext 1, ptr noundef nonnull align 4 dereferenceable(12) %encodedSize_12)
  br label %if.end13

if.end13:                                         ; preds = %if.then10, %if.end
  ret void
}