; Function Attrs: mustprogress uwtable
define void @_ZN8proxygen10HPACKCodec20recordCompressedSizeEPKN5folly5IOBufE(ptr noundef nonnull align 8 dereferenceable(408) %this, ptr noundef %stream) local_unnamed_addr #3 align 2 {
entry:
  %encodedSize_ = getelementptr inbounds i8, ptr %this, i64 8
  store i32 0, ptr %encodedSize_, align 8
  %tobool.not = icmp eq ptr %stream, null
  br i1 %tobool.not, label %if.end, label %if.then

if.then:                                          ; preds = %entry
  %call = tail call noundef i64 @_ZNK5folly5IOBuf22computeChainDataLengthEv(ptr noundef nonnull align 8 dereferenceable(56) %stream)
  %0 = load i32, ptr %encodedSize_, align 8
  %1 = trunc i64 %call to i32
  %conv4 = add i32 %0, %1
  store i32 %conv4, ptr %encodedSize_, align 8
  %compressedBlock = getelementptr inbounds i8, ptr %this, i64 16
  %2 = load i32, ptr %compressedBlock, align 8
  %conv8 = add i32 %2, %1
  store i32 %conv8, ptr %compressedBlock, align 8
  br label %if.end

if.end:                                           ; preds = %if.then, %entry
  %stats_ = getelementptr inbounds i8, ptr %this, i64 32
  %3 = load ptr, ptr %stats_, align 8
  %tobool9.not = icmp eq ptr %3, null
  br i1 %tobool9.not, label %if.end13, label %if.then10

if.then10:                                        ; preds = %if.end
  %vtable = load ptr, ptr %3, align 8
  %vfn = getelementptr inbounds i8, ptr %vtable, i64 16
  %4 = load ptr, ptr %vfn, align 8
  tail call void %4(ptr noundef nonnull align 8 dereferenceable(8) %3, i8 noundef zeroext 1, ptr noundef nonnull align 4 dereferenceable(12) %encodedSize_)
  br label %if.end13

if.end13:                                         ; preds = %if.then10, %if.end
  ret void
}